; Function Attrs: mustprogress uwtable
define void @_ZN7rocksdb18ConfigurableHelper15ConfigureOptionERKNS_13ConfigOptionsERNS_12ConfigurableERKNS_14OptionTypeInfoERKNSt7__cxx1112basic_stringIcSt11char_traitsIcESaIcEEESG_SG_Pv(ptr dead_on_unwind noalias writable sret(%"class.rocksdb::Status") align 8 %0, ptr noundef nonnull align 8 dereferenceable(80) %1, ptr noundef nonnull align 8 dereferenceable(32) %2, ptr noundef nonnull align 8 dereferenceable(180) %3, ptr noundef nonnull align 8 dereferenceable(32) %4, ptr noundef nonnull align 8 dereferenceable(32) %5, ptr noundef nonnull align 8 dereferenceable(32) %6, ptr noundef %7) local_unnamed_addr #0 align 2 personality ptr @__gxx_personality_v0 {
  %9 = alloca %"class.rocksdb::Slice", align 8
  %10 = alloca %"class.rocksdb::Slice", align 8
  %11 = getelementptr inbounds nuw i8, ptr %3, i64 168
  %12 = load i32, ptr %11, align 8, !tbaa !47
  %13 = icmp eq i32 %12, 23
  br i1 %13, label %14, label %15

14:                                               ; preds = %8
  tail call void @_ZN7rocksdb18ConfigurableHelper27ConfigureCustomizableOptionERKNS_13ConfigOptionsERNS_12ConfigurableERKNS_14OptionTypeInfoERKNSt7__cxx1112basic_stringIcSt11char_traitsIcESaIcEEESG_SG_Pv(ptr dead_on_unwind writable sret(%"class.rocksdb::Status") align 8 %0, ptr noundef nonnull align 8 dereferenceable(80) %1, ptr noundef nonnull align 8 dereferenceable(32) %2, ptr noundef nonnull align 8 dereferenceable(180) %3, ptr noundef nonnull align 8 dereferenceable(32) %4, ptr noundef nonnull align 8 dereferenceable(32) %5, ptr noundef nonnull align 8 dereferenceable(32) %6, ptr noundef %7)
  br label %37

15:                                               ; preds = %8
  %16 = getelementptr inbounds nuw i8, ptr %4, i64 8
  %17 = load i64, ptr %16, align 8, !tbaa !10
  %18 = getelementptr inbounds nuw i8, ptr %5, i64 8
  %19 = load i64, ptr %18, align 8, !tbaa !10
  %20 = icmp eq i64 %17, %19
  br i1 %20, label %21, label %_ZSteqIcEN9__gnu_cxx11__enable_ifIXsr9__is_charIT_EE7__valueEbE6__typeERKNSt7__cxx1112basic_stringIS2_St11char_traitsIS2_ESaIS2_EEESC_.exit.thread25

21:                                               ; preds = %15
  %22 = icmp eq i64 %17, 0
  br i1 %22, label %_ZSteqIcEN9__gnu_cxx11__enable_ifIXsr9__is_charIT_EE7__valueEbE6__typeERKNSt7__cxx1112basic_stringIS2_St11char_traitsIS2_ESaIS2_EEESC_.exit.thread, label %_ZSteqIcEN9__gnu_cxx11__enable_ifIXsr9__is_charIT_EE7__valueEbE6__typeERKNSt7__cxx1112basic_stringIS2_St11char_traitsIS2_ESaIS2_EEESC_.exit

_ZSteqIcEN9__gnu_cxx11__enable_ifIXsr9__is_charIT_EE7__valueEbE6__typeERKNSt7__cxx1112basic_stringIS2_St11char_traitsIS2_ESaIS2_EEESC_.exit: ; preds = %21
  %23 = load ptr, ptr %5, align 8, !tbaa !22
  %24 = load ptr, ptr %4, align 8, !tbaa !22
  %bcmp.i = tail call i32 @bcmp(ptr %24, ptr %23, i64 %17)
  %25 = icmp eq i32 %bcmp.i, 0
  br i1 %25, label %_ZSteqIcEN9__gnu_cxx11__enable_ifIXsr9__is_charIT_EE7__valueEbE6__typeERKNSt7__cxx1112basic_stringIS2_St11char_traitsIS2_ESaIS2_EEESC_.exit.thread, label %_ZSteqIcEN9__gnu_cxx11__enable_ifIXsr9__is_charIT_EE7__valueEbE6__typeERKNSt7__cxx1112basic_stringIS2_St11char_traitsIS2_ESaIS2_EEESC_.exit.thread25

_ZSteqIcEN9__gnu_cxx11__enable_ifIXsr9__is_charIT_EE7__valueEbE6__typeERKNSt7__cxx1112basic_stringIS2_St11char_traitsIS2_ESaIS2_EEESC_.exit.thread: ; preds = %21, %_ZSteqIcEN9__gnu_cxx11__enable_ifIXsr9__is_charIT_EE7__valueEbE6__typeERKNSt7__cxx1112basic_stringIS2_St11char_traitsIS2_ESaIS2_EEESC_.exit
  %26 = load ptr, ptr %2, align 8, !tbaa !72
  %27 = getelementptr inbounds nuw i8, ptr %26, i64 80
  %28 = load ptr, ptr %27, align 8
  tail call void %28(ptr dead_on_unwind writable sret(%"class.rocksdb::Status") align 8 %0, ptr noundef nonnull align 8 dereferenceable(32) %2, ptr noundef nonnull align 8 dereferenceable(80) %1, ptr noundef nonnull align 8 dereferenceable(180) %3, ptr noundef nonnull align 8 dereferenceable(32) %4, ptr noundef nonnull align 8 dereferenceable(32) %6, ptr noundef %7)
  br label %37

_ZSteqIcEN9__gnu_cxx11__enable_ifIXsr9__is_charIT_EE7__valueEbE6__typeERKNSt7__cxx1112basic_stringIS2_St11char_traitsIS2_ESaIS2_EEESC_.exit.thread25: ; preds = %15, %_ZSteqIcEN9__gnu_cxx11__enable_ifIXsr9__is_charIT_EE7__valueEbE6__typeERKNSt7__cxx1112basic_stringIS2_St11char_traitsIS2_ESaIS2_EEESC_.exit
  switch i32 %12, label %33 [
    i32 20, label %29
    i32 22, label %29
  ]

29:                                               ; preds = %_ZSteqIcEN9__gnu_cxx11__enable_ifIXsr9__is_charIT_EE7__valueEbE6__typeERKNSt7__cxx1112basic_stringIS2_St11char_traitsIS2_ESaIS2_EEESC_.exit.thread25, %_ZSteqIcEN9__gnu_cxx11__enable_ifIXsr9__is_charIT_EE7__valueEbE6__typeERKNSt7__cxx1112basic_stringIS2_St11char_traitsIS2_ESaIS2_EEESC_.exit.thread25
  %30 = load ptr, ptr %2, align 8, !tbaa !72
  %31 = getelementptr inbounds nuw i8, ptr %30, i64 80
  %32 = load ptr, ptr %31, align 8
  tail call void %32(ptr dead_on_unwind writable sret(%"class.rocksdb::Status") align 8 %0, ptr noundef nonnull align 8 dereferenceable(32) %2, ptr noundef nonnull align 8 dereferenceable(80) %1, ptr noundef nonnull align 8 dereferenceable(180) %3, ptr noundef nonnull align 8 dereferenceable(32) %5, ptr noundef nonnull align 8 dereferenceable(32) %6, ptr noundef %7)
  br label %37

33:                                               ; preds = %_ZSteqIcEN9__gnu_cxx11__enable_ifIXsr9__is_charIT_EE7__valueEbE6__typeERKNSt7__cxx1112basic_stringIS2_St11char_traitsIS2_ESaIS2_EEESC_.exit.thread25
  call void @llvm.lifetime.start.p0(i64 16, ptr nonnull %9) #21
  store ptr @.str.2, ptr %9, align 8, !tbaa !119
  %34 = getelementptr inbounds nuw i8, ptr %9, i64 8
  store i64 23, ptr %34, align 8, !tbaa !121
  call void @llvm.lifetime.start.p0(i64 16, ptr nonnull %10) #21
  %35 = load ptr, ptr %5, align 8, !tbaa !22
  store ptr %35, ptr %10, align 8, !tbaa !119
  %36 = getelementptr inbounds nuw i8, ptr %10, i64 8
  store i64 %19, ptr %36, align 8, !tbaa !121
  call void @_ZN7rocksdb6StatusC2ENS0_4CodeENS0_7SubCodeERKNS_5SliceES5_NS0_8SeverityE(ptr noundef nonnull align 8 dereferenceable(16) %0, i8 noundef zeroext 1, i8 noundef zeroext 0, ptr noundef nonnull align 8 dereferenceable(16) %9, ptr noundef nonnull align 8 dereferenceable(16) %10, i8 noundef zeroext 0)
  call void @llvm.lifetime.end.p0(i64 16, ptr nonnull %10) #21
  call void @llvm.lifetime.end.p0(i64 16, ptr nonnull %9) #21
  br label %37

37:                                               ; preds = %33, %29, %_ZSteqIcEN9__gnu_cxx11__enable_ifIXsr9__is_charIT_EE7__valueEbE6__typeERKNSt7__cxx1112basic_stringIS2_St11char_traitsIS2_ESaIS2_EEESC_.exit.thread, %14
  ret void
}